target datalayout = "e-m:e-p270:32:32-p271:32:32-p272:64:64-i64:64-i128:128-f80:128-n8:16:32:64-S128"
target triple = "x86_64-unknown-linux-gnu"

%"class.icu_75::RegexPattern" = type { %"class.icu_75::UObject", ptr, ptr, i32, ptr, %"class.icu_75::UnicodeString", ptr, ptr, i32, i32, i32, i32, ptr, i32, i32, i32, ptr, i32, ptr, i8, ptr }
%"class.icu_75::UObject" = type { ptr }
%"class.icu_75::UnicodeString" = type { %"class.icu_75::Replaceable", %"union.icu_75::UnicodeString::StackBufferOrFields" }
%"class.icu_75::Replaceable" = type { %"class.icu_75::UObject" }
%"union.icu_75::UnicodeString::StackBufferOrFields" = type { %struct.anon.0, [32 x i8] }
%struct.anon.0 = type { i16, i32, i32, ptr }
%"class.icu_75::UVector" = type { %"class.icu_75::UObject", i32, i32, ptr, ptr, ptr }
%"class.icu_75::RegexCompile" = type { ptr, ptr, ptr, ptr, i64, i8, i8, i8, i64, i64, i32, i32, %"struct.icu_75::RegexCompile::RegexPatternChar", [100 x i16], i32, i32, i32, i8, %"class.icu_75::UnicodeString", i64, %"class.icu_75::UVector32", i32, i32, i32, i32, %"class.icu_75::UStack", %"class.icu_75::UStack", i32, ptr }
%"struct.icu_75::RegexCompile::RegexPatternChar" = type { i32, i8 }
%"class.icu_75::UVector32" = type { %"class.icu_75::UObject", i32, i32, i32, ptr }
%"class.icu_75::UStack" = type { %"class.icu_75::UVector" }

@_ZN6icu_7512RegexPatternC1Ev = unnamed_addr alias void (ptr), ptr @_ZN6icu_7512RegexPatternC2Ev
@_ZN6icu_7512RegexPatternD1Ev = unnamed_addr alias void (ptr), ptr @_ZN6icu_7512RegexPatternD2Ev

; Function Attrs: mustprogress nounwind uwtable
define internal noundef signext i8 @_ZL9U_FAILURE10UErrorCode(i32 noundef %code) #0 {
entry:
  %code.addr = alloca i32, align 4
  store i32 %code, ptr %code.addr, align 4
  %0 = load i32, ptr %code.addr, align 4
  %cmp = icmp sgt i32 %0, 0
  %conv = zext i1 %cmp to i8
  ret i8 %conv
}

; Function Attrs: mustprogress uwtable
define noundef ptr @_ZN6icu_7512RegexPattern7compileEP5UTextjR11UParseErrorR10UErrorCode(ptr noundef %regex, i32 noundef %flags, ptr noundef nonnull align 4 dereferenceable(72) %pe, ptr noundef nonnull align 4 dereferenceable(4) %status) #1 align 2 personality ptr @__gxx_personality_v0 {
entry:
  %retval = alloca ptr, align 8
  %regex.addr = alloca ptr, align 8
  %flags.addr = alloca i32, align 4
  %pe.addr = alloca ptr, align 8
  %status.addr = alloca ptr, align 8
  %allFlags = alloca i32, align 4
  %This = alloca ptr, align 8
  %saved-rvalue = alloca ptr, align 8
  %cleanup.cond = alloca i1, align 1
  %exn.slot = alloca ptr, align 8
  %ehselector.slot = alloca i32, align 4
  %compiler = alloca %"class.icu_75::RegexCompile", align 8
  store ptr %regex, ptr %regex.addr, align 8
  store i32 %flags, ptr %flags.addr, align 4
  store ptr %pe, ptr %pe.addr, align 8
  store ptr %status, ptr %status.addr, align 8
  %0 = load ptr, ptr %status.addr, align 8
  %1 = load i32, ptr %0, align 4
  %call = call noundef signext i8 @_ZL9U_FAILURE10UErrorCode(i32 noundef %1)
  %tobool = icmp ne i8 %call, 0
  br i1 %tobool, label %if.then, label %if.end

if.then:                                          ; preds = %entry
  store ptr null, ptr %retval, align 8
  br label %return

if.end:                                           ; preds = %entry
  store i32 959, ptr %allFlags, align 4
  %2 = load i32, ptr %flags.addr, align 4
  %and = and i32 %2, -960
  %cmp = icmp ne i32 %and, 0
  br i1 %cmp, label %if.then1, label %if.end2

if.then1:                                         ; preds = %if.end
  %3 = load ptr, ptr %status.addr, align 8
  store i32 66315, ptr %3, align 4
  store ptr null, ptr %retval, align 8
  br label %return

if.end2:                                          ; preds = %if.end
  %4 = load i32, ptr %flags.addr, align 4
  %and3 = and i32 %4, 128
  %cmp4 = icmp ne i32 %and3, 0
  br i1 %cmp4, label %if.then5, label %if.end6

if.then5:                                         ; preds = %if.end2
  %5 = load ptr, ptr %status.addr, align 8
  store i32 66309, ptr %5, align 4
  store ptr null, ptr %retval, align 8
  br label %return

if.end6:                                          ; preds = %if.end2
  %call7 = call noundef ptr @_ZN6icu_757UMemorynwEm(i64 noundef 200) #9
  %new.isnull = icmp eq ptr %call7, null
  store i1 false, ptr %cleanup.cond, align 1
  br i1 %new.isnull, label %new.cont, label %new.notnull

new.notnull:                                      ; preds = %if.end6
  store ptr %call7, ptr %saved-rvalue, align 8
  store i1 true, ptr %cleanup.cond, align 1
  invoke void @_ZN6icu_7512RegexPatternC1Ev(ptr noundef nonnull align 8 dereferenceable(200) %call7)
          to label %invoke.cont unwind label %lpad

invoke.cont:                                      ; preds = %new.notnull
  br label %new.cont

new.cont:                                         ; preds = %invoke.cont, %if.end6
  %6 = phi ptr [ %call7, %invoke.cont ], [ null, %if.end6 ]
  store ptr %6, ptr %This, align 8
  %7 = load ptr, ptr %This, align 8
  %cmp8 = icmp eq ptr %7, null
  br i1 %cmp8, label %if.then9, label %if.end10

if.then9:                                         ; preds = %new.cont
  %8 = load ptr, ptr %status.addr, align 8
  store i32 7, ptr %8, align 4
  store ptr null, ptr %retval, align 8
  br label %return

lpad:                                             ; preds = %new.notnull
  %9 = landingpad { ptr, i32 }
          cleanup
  %10 = extractvalue { ptr, i32 } %9, 0
  store ptr %10, ptr %exn.slot, align 8
  %11 = extractvalue { ptr, i32 } %9, 1
  store i32 %11, ptr %ehselector.slot, align 4
  %cleanup.is_active = load i1, ptr %cleanup.cond, align 1
  br i1 %cleanup.is_active, label %cleanup.action, label %cleanup.done

cleanup.action:                                   ; preds = %lpad
  %12 = load ptr, ptr %saved-rvalue, align 8
  call void @_ZN6icu_757UMemorydlEPv(ptr noundef %12) #9
  br label %cleanup.done

cleanup.done:                                     ; preds = %cleanup.action, %lpad
  br label %eh.resume

if.end10:                                         ; preds = %new.cont
  %13 = load ptr, ptr %This, align 8
  %fDeferredStatus = getelementptr inbounds %"class.icu_75::RegexPattern", ptr %13, i32 0, i32 8
  %14 = load i32, ptr %fDeferredStatus, align 8
  %call11 = call noundef signext i8 @_ZL9U_FAILURE10UErrorCode(i32 noundef %14)
  %tobool12 = icmp ne i8 %call11, 0
  br i1 %tobool12, label %if.then13, label %if.end15

if.then13:                                        ; preds = %if.end10
  %15 = load ptr, ptr %This, align 8
  %fDeferredStatus14 = getelementptr inbounds %"class.icu_75::RegexPattern", ptr %15, i32 0, i32 8
  %16 = load i32, ptr %fDeferredStatus14, align 8
  %17 = load ptr, ptr %status.addr, align 8
  store i32 %16, ptr %17, align 4
  %18 = load ptr, ptr %This, align 8
  %isnull = icmp eq ptr %18, null
  br i1 %isnull, label %delete.end, label %delete.notnull

delete.notnull:                                   ; preds = %if.then13
  call void @_ZN6icu_7512RegexPatternD1Ev(ptr noundef nonnull align 8 dereferenceable(200) %18) #9
  call void @_ZN6icu_757UMemorydlEPv(ptr noundef %18) #9
  br label %delete.end

delete.end:                                       ; preds = %delete.notnull, %if.then13
  store ptr null, ptr %retval, align 8
  br label %return

if.end15:                                         ; preds = %if.end10
  %19 = load i32, ptr %flags.addr, align 4
  %20 = load ptr, ptr %This, align 8
  %fFlags = getelementptr inbounds %"class.icu_75::RegexPattern", ptr %20, i32 0, i32 3
  store i32 %19, ptr %fFlags, align 8
  %21 = load ptr, ptr %This, align 8
  %22 = load ptr, ptr %status.addr, align 8
  call void @_ZN6icu_7512RegexCompileC1EPNS_12RegexPatternER10UErrorCode(ptr noundef nonnull align 8 dereferenceable(512) %compiler, ptr noundef %21, ptr noundef nonnull align 4 dereferenceable(4) %22)
  %23 = load ptr, ptr %regex.addr, align 8
  %24 = load ptr, ptr %pe.addr, align 8
  %25 = load ptr, ptr %status.addr, align 8
  invoke void @_ZN6icu_7512RegexCompile7compileEP5UTextR11UParseErrorR10UErrorCode(ptr noundef nonnull align 8 dereferenceable(512) %compiler, ptr noundef %23, ptr noundef nonnull align 4 dereferenceable(72) %24, ptr noundef nonnull align 4 dereferenceable(4) %25)
          to label %invoke.cont17 unwind label %lpad16

invoke.cont17:                                    ; preds = %if.end15
  %26 = load ptr, ptr %status.addr, align 8
  %27 = load i32, ptr %26, align 4
  %call19 = invoke noundef signext i8 @_ZL9U_FAILURE10UErrorCode(i32 noundef %27)
          to label %invoke.cont18 unwind label %lpad16

invoke.cont18:                                    ; preds = %invoke.cont17
  %tobool20 = icmp ne i8 %call19, 0
  br i1 %tobool20, label %if.then21, label %if.end25

if.then21:                                        ; preds = %invoke.cont18
  %28 = load ptr, ptr %This, align 8
  %isnull22 = icmp eq ptr %28, null
  br i1 %isnull22, label %delete.end24, label %delete.notnull23

delete.notnull23:                                 ; preds = %if.then21
  call void @_ZN6icu_7512RegexPatternD1Ev(ptr noundef nonnull align 8 dereferenceable(200) %28) #9
  call void @_ZN6icu_757UMemorydlEPv(ptr noundef %28) #9
  br label %delete.end24

delete.end24:                                     ; preds = %delete.notnull23, %if.then21
  store ptr null, ptr %This, align 8
  br label %if.end25

lpad16:                                           ; preds = %invoke.cont17, %if.end15
  %29 = landingpad { ptr, i32 }
          cleanup
  %30 = extractvalue { ptr, i32 } %29, 0
  store ptr %30, ptr %exn.slot, align 8
  %31 = extractvalue { ptr, i32 } %29, 1
  store i32 %31, ptr %ehselector.slot, align 4
  call void @_ZN6icu_7512RegexCompileD1Ev(ptr noundef nonnull align 8 dereferenceable(512) %compiler) #9
  br label %eh.resume

if.end25:                                         ; preds = %delete.end24, %invoke.cont18
  %32 = load ptr, ptr %This, align 8
  store ptr %32, ptr %retval, align 8
  call void @_ZN6icu_7512RegexCompileD1Ev(ptr noundef nonnull align 8 dereferenceable(512) %compiler) #9
  br label %return

return:                                           ; preds = %if.end25, %delete.end, %if.then9, %if.then5, %if.then1, %if.then
  %33 = load ptr, ptr %retval, align 8
  ret ptr %33

eh.resume:                                        ; preds = %lpad16, %cleanup.done
  %exn = load ptr, ptr %exn.slot, align 8
  %sel = load i32, ptr %ehselector.slot, align 4
  %lpad.val = insertvalue { ptr, i32 } poison, ptr %exn, 0
  %lpad.val26 = insertvalue { ptr, i32 } %lpad.val, i32 %sel, 1
  resume { ptr, i32 } %lpad.val26
}